target datalayout = "e-m:e-p270:32:32-p271:32:32-p272:64:64-i64:64-i128:128-f80:128-n8:16:32:64-S128"
target triple = "x86_64-pc-linux-gnu"

%"class.std::__cxx11::basic_string" = type { %"struct.std::__cxx11::basic_string<char>::_Alloc_hider", i64, %union.anon }
%"struct.std::__cxx11::basic_string<char>::_Alloc_hider" = type { ptr }
%union.anon = type { i64, [8 x i8] }
%"class.std::allocator.4" = type { i8 }
%"struct.nix::SQLiteTxn" = type { i8, ptr }

@.str.28 = private unnamed_addr constant [8 x i8] c"commit;\00", align 1
@.str.29 = private unnamed_addr constant [23 x i8] c"committing transaction\00", align 1

; Function Attrs: mustprogress uwtable
define void @_ZN3nix9SQLiteTxn6commitEv(ptr noundef nonnull align 8 dereferenceable(16) %0) #3 align 2 personality ptr @__gxx_personality_v0 {
  %2 = alloca ptr, align 8
  %3 = alloca %"class.std::__cxx11::basic_string", align 8
  %4 = alloca %"class.std::allocator.4", align 1
  %5 = alloca ptr, align 8
  %6 = alloca i32, align 4
  store ptr %0, ptr %2, align 8
  %7 = load ptr, ptr %2, align 8
  %8 = getelementptr inbounds %"struct.nix::SQLiteTxn", ptr %7, i32 0, i32 1
  %9 = load ptr, ptr %8, align 8
  %10 = call i32 @sqlite3_exec(ptr noundef %9, ptr noundef @.str.28, ptr noundef null, ptr noundef null, ptr noundef null)
  %11 = icmp ne i32 %10, 0
  br i1 %11, label %12, label %26

12:                                               ; preds = %1
  %13 = getelementptr inbounds %"struct.nix::SQLiteTxn", ptr %7, i32 0, i32 1
  %14 = load ptr, ptr %13, align 8
  call void @_ZNSaIcEC1Ev(ptr noundef nonnull align 1 dereferenceable(1) %4) #1
  invoke void @_ZNSt7__cxx1112basic_stringIcSt11char_traitsIcESaIcEEC2IS3_EEPKcRKS3_(ptr noundef nonnull align 8 dereferenceable(32) %3, ptr noundef @.str.29, ptr noundef nonnull align 1 dereferenceable(1) %4)
          to label %15 unwind label %17

15:                                               ; preds = %12
  invoke void @_ZN3nix11SQLiteError6throw_IJEEEvP7sqlite3RKNSt7__cxx1112basic_stringIcSt11char_traitsIcESaIcEEEDpRKT_(ptr noundef %14, ptr noundef nonnull align 8 dereferenceable(32) %3) #18
          to label %16 unwind label %21

16:                                               ; preds = %15
  unreachable

17:                                               ; preds = %12
  %18 = landingpad { ptr, i32 }
          cleanup
  %19 = extractvalue { ptr, i32 } %18, 0
  store ptr %19, ptr %5, align 8
  %20 = extractvalue { ptr, i32 } %18, 1
  store i32 %20, ptr %6, align 4
  br label %25

21:                                               ; preds = %15
  %22 = landingpad { ptr, i32 }
          cleanup
  %23 = extractvalue { ptr, i32 } %22, 0
  store ptr %23, ptr %5, align 8
  %24 = extractvalue { ptr, i32 } %22, 1
  store i32 %24, ptr %6, align 4
  call void @_ZNSt7__cxx1112basic_stringIcSt11char_traitsIcESaIcEED2Ev(ptr noundef nonnull align 8 dereferenceable(32) %3) #1
  br label %25

25:                                               ; preds = %21, %17
  call void @_ZNSaIcED1Ev(ptr noundef nonnull align 1 dereferenceable(1) %4) #1
  br label %28

26:                                               ; preds = %1
  %27 = getelementptr inbounds %"struct.nix::SQLiteTxn", ptr %7, i32 0, i32 0
  store i8 0, ptr %27, align 8
  ret void

28:                                               ; preds = %25
  %29 = load ptr, ptr %5, align 8
  %30 = load i32, ptr %6, align 4
  %31 = insertvalue { ptr, i32 } poison, ptr %29, 0
  %32 = insertvalue { ptr, i32 } %31, i32 %30, 1
  resume { ptr, i32 } %32
}